target datalayout = "e-m:e-p270:32:32-p271:32:32-p272:64:64-i64:64-i128:128-f80:128-n8:16:32:64-S128"
target triple = "x86_64-unknown-linux-gnu"

%"class.absl::lts_20230802::log_internal::Voidify" = type { i8 }
%"class.absl::lts_20230802::log_internal::LogMessageFatal" = type { %"class.absl::lts_20230802::log_internal::LogMessage" }
%"class.absl::lts_20230802::log_internal::LogMessage" = type { %"class.absl::lts_20230802::base_internal::ErrnoSaver", %"class.std::unique_ptr" }
%"class.absl::lts_20230802::base_internal::ErrnoSaver" = type { i32 }
%"class.std::unique_ptr" = type { %"struct.std::__uniq_ptr_data" }
%"struct.std::__uniq_ptr_data" = type { %"class.std::__uniq_ptr_impl" }
%"class.std::__uniq_ptr_impl" = type { %"class.std::tuple" }
%"class.std::tuple" = type { %"struct.std::_Tuple_impl" }
%"struct.std::_Tuple_impl" = type { %"struct.std::_Head_base.1" }
%"struct.std::_Head_base.1" = type { ptr }
%"class.std::basic_string_view" = type { i64, ptr }
%struct.z_stream_s = type { ptr, i32, i64, ptr, i32, i64, ptr, ptr, ptr, ptr, ptr, i32, i64, i64 }
%"struct.google::protobuf::io::GzipOutputStream::Options" = type { i32, i32, i32, i32 }
%"class.google::protobuf::io::GzipOutputStream" = type { %"class.google::protobuf::io::ZeroCopyOutputStream", ptr, ptr, i32, %struct.z_stream_s, i32, ptr, i64 }
%"class.google::protobuf::io::ZeroCopyOutputStream" = type { ptr }

@.str = private unnamed_addr constant [133 x i8] c"generated/home/dtcxzyw/WorkSpace/Projects/compilers/llvm-opt-benchmark/bench/protobuf/protobuf/src/google/protobuf/io/gzip_stream.cc\00", align 1
@.str.2 = private unnamed_addr constant [22 x i8] c"input_buffer_ != NULL\00", align 1
@.str.3 = private unnamed_addr constant [7 x i8] c"1.2.11\00", align 1
@_ZTVN6google8protobuf2io20ZeroCopyOutputStreamE = external unnamed_addr constant { [10 x ptr] }, align 8
@_ZN6google8protobuf2io16GzipOutputStream7OptionsC1Ev = unnamed_addr alias void (ptr), ptr @_ZN6google8protobuf2io16GzipOutputStream7OptionsC2Ev

; Function Attrs: noreturn nounwind uwtable
define linkonce_odr hidden void @__clang_call_terminate(ptr noundef %0) #9 comdat {
  %2 = call ptr @__cxa_begin_catch(ptr %0) #3
  call void @_ZSt9terminatev() #13
  unreachable
}

; Function Attrs: mustprogress nounwind uwtable
define linkonce_odr hidden noundef i64 @_ZNSt11char_traitsIcE6lengthEPKc(ptr noundef %__s) #5 comdat align 2 {
entry:
  %__s.addr = alloca ptr, align 8
  store ptr %__s, ptr %__s.addr, align 8
  %0 = load ptr, ptr %__s.addr, align 8
  %call = call i64 @strlen(ptr noundef %0) #3
  ret i64 %call
}

; Function Attrs: mustprogress nounwind uwtable
define linkonce_odr hidden void @_ZNKO4absl12lts_2023080212log_internal7VoidifyaaINS1_10LogMessageEEEvRKT_(ptr noundef nonnull align 1 dereferenceable(1) %this, ptr noundef nonnull align 8 dereferenceable(16) %0) #5 comdat align 2 {
entry:
  %this.addr = alloca ptr, align 8
  %.addr = alloca ptr, align 8
  store ptr %this, ptr %this.addr, align 8
  store ptr %0, ptr %.addr, align 8
  ret void
}

; Function Attrs: mustprogress nounwind uwtable
define linkonce_odr hidden noundef nonnull align 8 dereferenceable(16) ptr @_ZN4absl12lts_2023080212log_internal10LogMessage14InternalStreamEv(ptr noundef nonnull align 8 dereferenceable(16) %this) #5 comdat align 2 {
entry:
  %this.addr = alloca ptr, align 8
  store ptr %this, ptr %this.addr, align 8
  %this1 = load ptr, ptr %this.addr, align 8
  ret ptr %this1
}

; Function Attrs: mustprogress nounwind uwtable
define linkonce_odr hidden void @_ZNSt17basic_string_viewIcSt11char_traitsIcEEC2EPKc(ptr noundef nonnull align 8 dereferenceable(16) %this, ptr noundef nonnull %__str) unnamed_addr #5 comdat align 2 personality ptr @__gxx_personality_v0 {
entry:
  %this.addr = alloca ptr, align 8
  %__str.addr = alloca ptr, align 8
  store ptr %this, ptr %this.addr, align 8
  store ptr %__str, ptr %__str.addr, align 8
  %this1 = load ptr, ptr %this.addr, align 8
  %_M_len = getelementptr inbounds %"class.std::basic_string_view", ptr %this1, i32 0, i32 0
  %0 = load ptr, ptr %__str.addr, align 8
  %call = invoke noundef i64 @_ZNSt11char_traitsIcE6lengthEPKc(ptr noundef %0)
          to label %invoke.cont unwind label %terminate.lpad

invoke.cont:                                      ; preds = %entry
  store i64 %call, ptr %_M_len, align 8
  %_M_str = getelementptr inbounds %"class.std::basic_string_view", ptr %this1, i32 0, i32 1
  %1 = load ptr, ptr %__str.addr, align 8
  store ptr %1, ptr %_M_str, align 8
  ret void

terminate.lpad:                                   ; preds = %entry
  %2 = landingpad { ptr, i32 }
          catch ptr null
  %3 = extractvalue { ptr, i32 } %2, 0
  call void @__clang_call_terminate(ptr %3) #13
  unreachable
}

; Function Attrs: mustprogress nounwind uwtable
define linkonce_odr hidden void @_ZN6google8protobuf2io20ZeroCopyOutputStreamD2Ev(ptr noundef nonnull align 8 dereferenceable(8) %this) unnamed_addr #5 comdat align 2 {
entry:
  %this.addr = alloca ptr, align 8
  store ptr %this, ptr %this.addr, align 8
  ret void
}

; Function Attrs: mustprogress uwtable
define void @_ZN6google8protobuf2io16GzipOutputStream4InitEPNS1_20ZeroCopyOutputStreamERKNS2_7OptionsE(ptr noundef nonnull align 8 dereferenceable(168) %this, ptr noundef %sub_stream, ptr noundef nonnull align 4 dereferenceable(16) %options) #4 align 2 personality ptr @__gxx_personality_v0 {
entry:
  %this.addr = alloca ptr, align 8
  %sub_stream.addr = alloca ptr, align 8
  %options.addr = alloca ptr, align 8
  %ref.tmp = alloca %"class.absl::lts_20230802::log_internal::Voidify", align 1
  %ref.tmp5 = alloca %"class.absl::lts_20230802::log_internal::LogMessageFatal", align 8
  %agg.tmp = alloca %"class.std::basic_string_view", align 8
  %cleanup.cond = alloca i1, align 1
  %exn.slot = alloca ptr, align 8
  %ehselector.slot = alloca i32, align 4
  %windowBitsFormat = alloca i32, align 4
  store ptr %this, ptr %this.addr, align 8
  store ptr %sub_stream, ptr %sub_stream.addr, align 8
  store ptr %options, ptr %options.addr, align 8
  %this1 = load ptr, ptr %this.addr, align 8
  %0 = load ptr, ptr %sub_stream.addr, align 8
  %sub_stream_ = getelementptr inbounds %"class.google::protobuf::io::GzipOutputStream", ptr %this1, i32 0, i32 1
  store ptr %0, ptr %sub_stream_, align 8
  %sub_data_ = getelementptr inbounds %"class.google::protobuf::io::GzipOutputStream", ptr %this1, i32 0, i32 2
  store ptr null, ptr %sub_data_, align 8
  %sub_data_size_ = getelementptr inbounds %"class.google::protobuf::io::GzipOutputStream", ptr %this1, i32 0, i32 3
  store i32 0, ptr %sub_data_size_, align 8
  %1 = load ptr, ptr %options.addr, align 8
  %buffer_size = getelementptr inbounds %"struct.google::protobuf::io::GzipOutputStream::Options", ptr %1, i32 0, i32 1
  %2 = load i32, ptr %buffer_size, align 4
  %conv = sext i32 %2 to i64
  %input_buffer_length_ = getelementptr inbounds %"class.google::protobuf::io::GzipOutputStream", ptr %this1, i32 0, i32 7
  store i64 %conv, ptr %input_buffer_length_, align 8
  %input_buffer_length_2 = getelementptr inbounds %"class.google::protobuf::io::GzipOutputStream", ptr %this1, i32 0, i32 7
  %3 = load i64, ptr %input_buffer_length_2, align 8
  %call = call noalias noundef nonnull ptr @_Znwm(i64 noundef %3) #11
  %input_buffer_ = getelementptr inbounds %"class.google::protobuf::io::GzipOutputStream", ptr %this1, i32 0, i32 6
  store ptr %call, ptr %input_buffer_, align 8
  %input_buffer_3 = getelementptr inbounds %"class.google::protobuf::io::GzipOutputStream", ptr %this1, i32 0, i32 6
  %4 = load ptr, ptr %input_buffer_3, align 8
  %cmp = icmp ne ptr %4, null
  %lnot = xor i1 %cmp, true
  store i1 false, ptr %cleanup.cond, align 1
  br i1 %lnot, label %cond.false, label %cond.true

cond.true:                                        ; preds = %entry
  br label %cond.end

cond.false:                                       ; preds = %entry
  call void @_ZNSt17basic_string_viewIcSt11char_traitsIcEEC2EPKc(ptr noundef nonnull align 8 dereferenceable(16) %agg.tmp, ptr noundef @.str.2) #3
  %5 = getelementptr inbounds { i64, ptr }, ptr %agg.tmp, i32 0, i32 0
  %6 = load i64, ptr %5, align 8
  %7 = getelementptr inbounds { i64, ptr }, ptr %agg.tmp, i32 0, i32 1
  %8 = load ptr, ptr %7, align 8
  call void @_ZN4absl12lts_2023080212log_internal15LogMessageFatalC1EPKciSt17basic_string_viewIcSt11char_traitsIcEE(ptr noundef nonnull align 8 dereferenceable(16) %ref.tmp5, ptr noundef @.str, i32 noundef 201, i64 %6, ptr %8) #12
  store i1 true, ptr %cleanup.cond, align 1
  %call6 = invoke noundef nonnull align 8 dereferenceable(16) ptr @_ZN4absl12lts_2023080212log_internal10LogMessage14InternalStreamEv(ptr noundef nonnull align 8 dereferenceable(16) %ref.tmp5)
          to label %invoke.cont unwind label %lpad

invoke.cont:                                      ; preds = %cond.false
  invoke void @_ZNKO4absl12lts_2023080212log_internal7VoidifyaaINS1_10LogMessageEEEvRKT_(ptr noundef nonnull align 1 dereferenceable(1) %ref.tmp, ptr noundef nonnull align 8 dereferenceable(16) %call6)
          to label %invoke.cont7 unwind label %lpad

invoke.cont7:                                     ; preds = %invoke.cont
  br label %cond.end

cond.end:                                         ; preds = %invoke.cont7, %cond.true
  %cleanup.is_active = load i1, ptr %cleanup.cond, align 1
  br i1 %cleanup.is_active, label %cleanup.action, label %cleanup.done

cleanup.action:                                   ; preds = %cond.end
  call void @_ZN4absl12lts_2023080212log_internal15LogMessageFatalD1Ev(ptr noundef nonnull align 8 dereferenceable(16) %ref.tmp5) #13
  unreachable

lpad:                                             ; preds = %invoke.cont, %cond.false
  %9 = landingpad { ptr, i32 }
          cleanup
  %10 = extractvalue { ptr, i32 } %9, 0
  store ptr %10, ptr %exn.slot, align 8
  %11 = extractvalue { ptr, i32 } %9, 1
  store i32 %11, ptr %ehselector.slot, align 4
  %cleanup.is_active8 = load i1, ptr %cleanup.cond, align 1
  br i1 %cleanup.is_active8, label %cleanup.action9, label %cleanup.done10

12:                                               ; No predecessors!
  br label %cleanup.done

cleanup.done:                                     ; preds = %12, %cond.end
  %zcontext_ = getelementptr inbounds %"class.google::protobuf::io::GzipOutputStream", ptr %this1, i32 0, i32 4
  %zalloc = getelementptr inbounds %struct.z_stream_s, ptr %zcontext_, i32 0, i32 8
  store ptr null, ptr %zalloc, align 8
  %zcontext_11 = getelementptr inbounds %"class.google::protobuf::io::GzipOutputStream", ptr %this1, i32 0, i32 4
  %zfree = getelementptr inbounds %struct.z_stream_s, ptr %zcontext_11, i32 0, i32 9
  store ptr null, ptr %zfree, align 8
  %zcontext_12 = getelementptr inbounds %"class.google::protobuf::io::GzipOutputStream", ptr %this1, i32 0, i32 4
  %opaque = getelementptr inbounds %struct.z_stream_s, ptr %zcontext_12, i32 0, i32 10
  store ptr null, ptr %opaque, align 8
  %zcontext_13 = getelementptr inbounds %"class.google::protobuf::io::GzipOutputStream", ptr %this1, i32 0, i32 4
  %next_out = getelementptr inbounds %struct.z_stream_s, ptr %zcontext_13, i32 0, i32 3
  store ptr null, ptr %next_out, align 8
  %zcontext_14 = getelementptr inbounds %"class.google::protobuf::io::GzipOutputStream", ptr %this1, i32 0, i32 4
  %avail_out = getelementptr inbounds %struct.z_stream_s, ptr %zcontext_14, i32 0, i32 4
  store i32 0, ptr %avail_out, align 8
  %zcontext_15 = getelementptr inbounds %"class.google::protobuf::io::GzipOutputStream", ptr %this1, i32 0, i32 4
  %total_out = getelementptr inbounds %struct.z_stream_s, ptr %zcontext_15, i32 0, i32 5
  store i64 0, ptr %total_out, align 8
  %zcontext_16 = getelementptr inbounds %"class.google::protobuf::io::GzipOutputStream", ptr %this1, i32 0, i32 4
  %next_in = getelementptr inbounds %struct.z_stream_s, ptr %zcontext_16, i32 0, i32 0
  store ptr null, ptr %next_in, align 8
  %zcontext_17 = getelementptr inbounds %"class.google::protobuf::io::GzipOutputStream", ptr %this1, i32 0, i32 4
  %avail_in = getelementptr inbounds %struct.z_stream_s, ptr %zcontext_17, i32 0, i32 1
  store i32 0, ptr %avail_in, align 8
  %zcontext_18 = getelementptr inbounds %"class.google::protobuf::io::GzipOutputStream", ptr %this1, i32 0, i32 4
  %total_in = getelementptr inbounds %struct.z_stream_s, ptr %zcontext_18, i32 0, i32 2
  store i64 0, ptr %total_in, align 8
  %zcontext_19 = getelementptr inbounds %"class.google::protobuf::io::GzipOutputStream", ptr %this1, i32 0, i32 4
  %msg = getelementptr inbounds %struct.z_stream_s, ptr %zcontext_19, i32 0, i32 6
  store ptr null, ptr %msg, align 8
  store i32 16, ptr %windowBitsFormat, align 4
  %13 = load ptr, ptr %options.addr, align 8
  %format = getelementptr inbounds %"struct.google::protobuf::io::GzipOutputStream::Options", ptr %13, i32 0, i32 0
  %14 = load i32, ptr %format, align 4
  %cmp20 = icmp eq i32 %14, 2
  br i1 %cmp20, label %if.then, label %if.end

if.then:                                          ; preds = %cleanup.done
  store i32 0, ptr %windowBitsFormat, align 4
  br label %if.end

cleanup.action9:                                  ; preds = %lpad
  call void @_ZN4absl12lts_2023080212log_internal15LogMessageFatalD1Ev(ptr noundef nonnull align 8 dereferenceable(16) %ref.tmp5) #13
  unreachable

15:                                               ; No predecessors!
  br label %cleanup.done10

cleanup.done10:                                   ; preds = %15, %lpad
  br label %eh.resume

if.end:                                           ; preds = %if.then, %cleanup.done
  %zcontext_21 = getelementptr inbounds %"class.google::protobuf::io::GzipOutputStream", ptr %this1, i32 0, i32 4
  %16 = load ptr, ptr %options.addr, align 8
  %compression_level = getelementptr inbounds %"struct.google::protobuf::io::GzipOutputStream::Options", ptr %16, i32 0, i32 2
  %17 = load i32, ptr %compression_level, align 4
  %18 = load i32, ptr %windowBitsFormat, align 4
  %or = or i32 15, %18
  %19 = load ptr, ptr %options.addr, align 8
  %compression_strategy = getelementptr inbounds %"struct.google::protobuf::io::GzipOutputStream::Options", ptr %19, i32 0, i32 3
  %20 = load i32, ptr %compression_strategy, align 4
  %call22 = call i32 @deflateInit2_(ptr noundef %zcontext_21, i32 noundef %17, i32 noundef 8, i32 noundef %or, i32 noundef 8, i32 noundef %20, ptr noundef @.str.3, i32 noundef 112)
  %zerror_ = getelementptr inbounds %"class.google::protobuf::io::GzipOutputStream", ptr %this1, i32 0, i32 5
  store i32 %call22, ptr %zerror_, align 8
  ret void

eh.resume:                                        ; preds = %cleanup.done10
  %exn = load ptr, ptr %exn.slot, align 8
  %sel = load i32, ptr %ehselector.slot, align 4
  %lpad.val = insertvalue { ptr, i32 } poison, ptr %exn, 0
  %lpad.val23 = insertvalue { ptr, i32 } %lpad.val, i32 %sel, 1
  resume { ptr, i32 } %lpad.val23
}

; Function Attrs: mustprogress nounwind uwtable
define linkonce_odr hidden void @_ZN6google8protobuf2io20ZeroCopyOutputStreamC2Ev(ptr noundef nonnull align 8 dereferenceable(8) %this) unnamed_addr #5 comdat align 2 {
entry:
  %this.addr = alloca ptr, align 8
  store ptr %this, ptr %this.addr, align 8
  %this1 = load ptr, ptr %this.addr, align 8
  store ptr getelementptr inbounds ({ [10 x ptr] }, ptr @_ZTVN6google8protobuf2io20ZeroCopyOutputStreamE, i32 0, i32 0, i32 2), ptr %this1, align 8
  ret void
}

; Function Attrs: mustprogress uwtable
define void @_ZN6google8protobuf2io16GzipOutputStreamC2EPNS1_20ZeroCopyOutputStreamE(ptr noundef nonnull align 8 dereferenceable(168) %this, ptr noundef %sub_stream) unnamed_addr #4 align 2 personality ptr @__gxx_personality_v0 {
entry:
  %this.addr = alloca ptr, align 8
  %sub_stream.addr = alloca ptr, align 8
  %ref.tmp = alloca %"struct.google::protobuf::io::GzipOutputStream::Options", align 4
  %exn.slot = alloca ptr, align 8
  %ehselector.slot = alloca i32, align 4
  store ptr %this, ptr %this.addr, align 8
  store ptr %sub_stream, ptr %sub_stream.addr, align 8
  %this1 = load ptr, ptr %this.addr, align 8
  call void @_ZN6google8protobuf2io20ZeroCopyOutputStreamC2Ev(ptr noundef nonnull align 8 dereferenceable(8) %this1)
  store ptr getelementptr inbounds ({ [10 x ptr] }, ptr @_ZTVN6google8protobuf2io16GzipOutputStreamE, i32 0, i32 0, i32 2), ptr %this1, align 8
  %0 = load ptr, ptr %sub_stream.addr, align 8
  invoke void @_ZN6google8protobuf2io16GzipOutputStream7OptionsC1Ev(ptr noundef nonnull align 4 dereferenceable(16) %ref.tmp)
          to label %invoke.cont unwind label %lpad

invoke.cont:                                      ; preds = %entry
  invoke void @_ZN6google8protobuf2io16GzipOutputStream4InitEPNS1_20ZeroCopyOutputStreamERKNS2_7OptionsE(ptr noundef nonnull align 8 dereferenceable(168) %this1, ptr noundef %0, ptr noundef nonnull align 4 dereferenceable(16) %ref.tmp)
          to label %invoke.cont2 unwind label %lpad

invoke.cont2:                                     ; preds = %invoke.cont
  ret void

lpad:                                             ; preds = %invoke.cont, %entry
  %1 = landingpad { ptr, i32 }
          cleanup
  %2 = extractvalue { ptr, i32 } %1, 0
  store ptr %2, ptr %exn.slot, align 8
  %3 = extractvalue { ptr, i32 } %1, 1
  store i32 %3, ptr %ehselector.slot, align 4
  call void @_ZN6google8protobuf2io20ZeroCopyOutputStreamD2Ev(ptr noundef nonnull align 8 dereferenceable(8) %this1) #3
  br label %eh.resume

eh.resume:                                        ; preds = %lpad
  %exn = load ptr, ptr %exn.slot, align 8
  %sel = load i32, ptr %ehselector.slot, align 4
  %lpad.val = insertvalue { ptr, i32 } poison, ptr %exn, 0
  %lpad.val3 = insertvalue { ptr, i32 } %lpad.val, i32 %sel, 1
  resume { ptr, i32 } %lpad.val3
}